mads 1.9.3
     1 				; A floating chess board
     2
     3 				; Antic
     4
     5 = 0230			DLPTR	EQU 560	
     6 = 0200			VDLIST	EQU $200	 
     7 = D40E			NMIEN	EQU $D40E
     8 = D40A			WSYNC	EQU $D40A
     9 = D40B			VCOUNT	EQU $D40B
    10 = 0014			RTCLK	EQU $14
    11 = 022F			SDMCTL	EQU 559
    12
    13 				; Zeropage
    14
    15 = 00E0			ZP		equ $e0
    16 = 00E2			zp2		equ $e2
    17 = 00E4			zp3		equ $e4
    18 = 00E6			zp4		equ $e6
    19 = 00E8			zp5		equ	$e8
    20 = 00EA			zp6		equ $ea
    21 = 00EC			zp7		equ $ec
    22 = 00EE			zp8		equ $ee
    23
    24 				; FARBEN
    25
    26 = 02C4			COLPF0	EQU 708  
    27 = 02C5			COLPF1	EQU 709 
    28 = 02C6			COLPF2	EQU 710
    29 = 02C7			COLPF3	EQU 711
    30 = 02C8			COLBAK	EQU 712
    31
    32 = D016			COLPF0S	EQU $D016 
    33 = D017			COLPF1S	EQU $D017
    34 = D018			COLPF2S	EQU $D018
    35 = D019			COLPF3S	EQU $D019
    36 = D01A			COLBAKS	EQU $D01A
    37
    38 				;
    39 				; Start
    40 				;
    41
    42 					org $a800
    43 					
    44 FFFF> A800-BA10> A5 58		lda 88
    45 A802 85 E0			sta ZP
    46 A804 A5 59			lda 89
    47 A806 85 E1			sta ZP+1
    48 					
    49 A808 A0 00			ldy #0
    50 A80A A9 01			lda #1
    51 A80C 91 E0			sta (zp),y
    52 A80E A9 00			lda #0
    53 A810 69 28			adc #40
    54 A812 A8				tay
    55 A813 A9 02			lda #2
    56 A815 91 E0			sta (ZP),y
    57 					
    58 A817 A9 44			lda #chset/256
    59 A819 8D F4 02			sta 756
    60 					
    61 A81C A9 B3			lda #<dlist
    62 A81E 8D 30 02			sta 560
    63 A821 A9 A9			lda #>dlist
    64 A823 8D 31 02			sta 561
    65 					
    66 A826 A9 C6			lda #198			; Set colors for titel, backrground of (Atari Basic) mode 1 and 2 
    67 A828 8D C8 02			sta colbak
    68 A82B A9 C8			lda #200		; Color for lower case characters (Atari Basic) mode 1 and 2
    69 A82D 8D C5 02			sta colpf1
    70 A830 A9 00			lda #0			; Background for (Atari Basic) mode 0
    71 A832 8D C6 02			sta colpf2
    72 A835 A9 C5			lda #197			; Color for upper case characters (Atari Basic) mode 1 and 2
    73 A837 8D C4 02			sta colpf0
    74 					
    75 A83A A9 03			lda #3			; Scroll-speed
    76 A83C 8D 6C A8			sta waitcnt
    77 					
    78 A83F A9 0F			lda #15
    79 A841 8D 6E A8			sta clocks
    80 A844 8D 05 D4			sta $d405
    81 					
    82 A847 A9 00			lda #0			; Scroll dir= down
    83 A849 8D 6D A8			sta dir
    84 					
    85 A84C A9 A0			lda #160
    86 A84E 8D 6F A8			sta counter
    87 					
    88 A851 A0 70			ldy #<scroll	; Immediate VBI, lets go!
    89 A853 A2 A8			ldx #>scroll
    90 A855 A9 06			lda #6
    91 A857 20 5C E4			jsr $e45c
    92 					
    93 A85A A9 93			lda #<dli   	; Display- List- Interrupt on
    94 A85C 8D 00 02			sta vdlist
    95 A85F A9 A9			lda #>dli
    96 A861 8D 01 02			sta vdlist+1
    97 A864 A9 C0			lda #$C0
    98 A866 8D 0E D4			sta NMIEN
    99 					
   100 A869			ll
   101 A869 4C 69 A8			jmp ll
   102 					
   103 A86C			waitcnt
   104 A86C 00				.byte 0	; The bigger to lower scrolls the charset
   105 A86D			dir
   106 A86D 00				.byte 0	; 0 scroll down// >0 scroll up
   107 A86E			clocks
   108 A86E 00				.byte 0	; Vscrol- color clocks
   109 A86F			counter
   110 A86F 00				.byte 0 ; # of lines to be hard scrolled
   111
   112 				;
   113 				; Move down
   114 				;
   115 				; Immediate VBI
   116 				;
   117
   118 A870			scroll
   119
   120 					;jmp gon		; OVERRIDE WAITCOUNTER FOR CHARSET SCROL, REMOVE AT WILL
   121
   122 A870 CE 6C A8			dec waitcnt
   123 A873 D0 03			bne xit
   124 A875 4C 7B A8			jmp gon
   125 A878			xit
   126 A878 4C 4C A9			jmp fine
   127 					
   128 A87B			gon
   129
   130 A87B A9 02			lda #2			; Speed
   131 A87D 8D 6C A8			sta waitcnt
   132 					
   133 					;jmp fine		; Overrides charset scrol renove at will...
   134 					
   135 A880 AD 6D A8			lda dir
   136 A883 D0 03			bne down
   137 A885 4C EC A8			jmp up
   138
   139 					; Scroll down
   140
   141 A888			down
   142 					;-------C1
   143 A888 AD 0F 44			lda c1+7
   144 A88B A8				tay
   145 					
   146 A88C AD 0E 44			lda c1+6
   147 A88F 8D 0F 44			sta c1+7
   148 					
   149 A892 AD 0D 44			lda c1+5
   150 A895 8D 0E 44			sta c1+6
   151 					
   152 A898 AD 0C 44			lda c1+4
   153 A89B 8D 0D 44			sta c1+5
   154 					
   155 A89E AD 0B 44			lda c1+3
   156 A8A1 8D 0C 44			sta c1+4
   157 					
   158 A8A4 AD 0A 44			lda c1+2
   159 A8A7 8D 0B 44			sta c1+3
   160 					
   161 A8AA AD 09 44			lda c1+1
   162 A8AD 8D 0A 44			sta c1+2
   163 					
   164 A8B0 AD 08 44			lda c1
   165 A8B3 8D 09 44			sta c1+1
   166 					
   167 					;-------C2
   168
   169 A8B6 AD 17 44			lda c2+7
   170 A8B9 8D 08 44			sta c1
   171 					
   172 A8BC AD 16 44			lda c2+6
   173 A8BF 8D 17 44			sta c2+7
   174 					
   175 A8C2 AD 15 44			lda c2+5
   176 A8C5 8D 16 44			sta c2+6
   177 					
   178 A8C8 AD 14 44			lda c2+4
   179 A8CB 8D 15 44			sta c2+5
   180 					
   181 A8CE AD 13 44			lda c2+3
   182 A8D1 8D 14 44			sta c2+4
   183 					
   184 A8D4 AD 12 44			lda c2+2
   185 A8D7 8D 13 44			sta c2+3
   186 					
   187 A8DA AD 11 44			lda c2+1
   188 A8DD 8D 12 44			sta c2+2
   189 					
   190 A8E0 AD 10 44			lda c2
   191 A8E3 8D 11 44			sta c2+1
   192
   193 A8E6 8C 10 44			sty c2
   194
   195 A8E9 4C 4C A9			jmp fine	; End of down
   196
   197 A8EC			up
   198 					; Scroll up
   199 					; --------c1
   200
   201 A8EC AC 08 44			ldy c1
   202 					
   203 A8EF AD 09 44			lda c1+1
   204 A8F2 8D 08 44			sta c1
   205 					
   206 A8F5 AD 0A 44			lda c1+2
   207 A8F8 8D 09 44			sta c1+1
   208 					
   209 A8FB AD 0B 44			lda c1+3
   210 A8FE 8D 0A 44			sta c1+2
   211 					
   212 A901 AD 0C 44			lda c1+4
   213 A904 8D 0B 44			sta c1+3
   214 					
   215 A907 AD 0D 44			lda c1+5
   216 A90A 8D 0C 44			sta c1+4
   217 					
   218 A90D AD 0E 44			lda c1+6
   219 A910 8D 0D 44			sta c1+5
   220 					
   221 A913 AD 0F 44			lda c1+7
   222 A916 8D 0E 44			sta c1+6
   223 					
   224 A919 AD 10 44			lda c1+8
   225 A91C 8D 0F 44			sta c1+7
   226 					
   227 					;-----c2
   228
   229 A91F AD 11 44			lda c2+1
   230 A922 8D 10 44			sta c2
   231 					
   232 A925 AD 12 44			lda c2+2
   233 A928 8D 11 44			sta c2+1
   234 					
   235 A92B AD 13 44			lda c2+3
   236 A92E 8D 12 44			sta c2+2
   237 					
   238 A931 AD 14 44			lda c2+4
   239 A934 8D 13 44			sta c2+3
   240 					
   241 A937 AD 15 44			lda c2+5
   242 A93A 8D 14 44			sta c2+4
   243 					
   244 A93D AD 16 44			lda c2+6
   245 A940 8D 15 44			sta c2+5
   246 					
   247 A943 AD 17 44			lda c2+7
   248 A946 8D 16 44			sta c2+6
   249 					
   250 A949 8C 17 44			sty c2+7
   251 					
   252 					; Fine scroll
   253
   254 A94C			fine
   255 A94C AD 6E A8			lda clocks
   256 A94F F0 0C			beq hard
   257 A951 38				sec
   258 A952 E9 01			sbc #1
   259 A954 8D 6E A8			sta clocks
   260 A957 8D 05 D4			sta $d405
   261 A95A 4C 90 A9			jmp leave
   262 A95D			hard
   263 A95D A9 0F			lda #15 
   264 A95F 8D 6E A8			sta clocks
   265 A962 8D 05 D4			sta $d405
   266 					
   267 A965 CE 6F A8			dec counter
   268 A968 AD 6F A8			lda counter
   269 A96B D0 0F			bne goon
   270 A96D A9 B4			lda #180
   271 A96F 8D 6F A8			sta counter
   272 A972 A9 81			lda #<scr3end
   273 A974 8D B7 A9			sta lms
   274 A977 A9 B8			lda #>scr3end
   275 A979 8D B8 A9			sta lms+1
   276
   277 A97C			goon	
   278 A97C AD B7 A9			lda lms
   279 A97F 38				sec
   280 A980 E9 14			sbc #20
   281 A982 8D B7 A9			sta lms
   282 A985 AD B8 A9			lda lms+1
   283 A988 E9 00			sbc #0
   284 A98A 8D B8 A9			sta lms+1
   285 A98D 4C 5F E4			jmp $e45f		; Leave VBI
   286 					
   287 A990			leave
   288 A990 4C 5F E4			jmp $e45f		; Leave VBI
   289
   290 				;
   291 				; DLI
   292 				;
   293
   294
   295 A993			dli
   296 A993 48				pha			;  Save registers
   297 A994 8A				txa
   298 A995 48				pha
   299 A996 98				tya
   300 A997 48				pha
   301 					
   302 					
   303 A998 68				pla			; Get registers back
   304 A999 A8				tay
   305 A99A 68				pla
   306 A99B AA				tax
   307 A99C 68				pla
   308 					
   309 A99D 40				rti
   310
   311 					
   312 				;
   313 				; Wait
   314 				; Sometimes our code is to fast........
   315 				;
   316
   317 A99E			wtt
   318 A99E 48				pha				; Save registers
   319 A99F 8A				txa
   320 A9A0 48				pha
   321 A9A1 98				tya
   322 A9A2 48				pha
   323
   324 A9A3 A2 32			ldx #50
   325 A9A5			ww0	
   326 A9A5 A0 C3			ldy #195
   327 A9A7			ww1	
   328 A9A7 88				dey
   329 A9A8 D0 FD			bne ww1
   330 A9AA CA				dex
   331 A9AB D0 F8			bne ww0
   332 					
   333 A9AD 68				pla				; Get registers back
   334 A9AE A8				tay
   335 A9AF 68				pla
   336 A9B0 AA				tax
   337 A9B1 68				pla
   338 					
   339 A9B2 60				rts
   340 					
   341 					; Antic
   342
   343 A9B3			dlist
   344 A9B3 70 70 F0			.byte 112,112,112+128
   345 A9B6 67				.byte $67
   346 A9B7			lms
   347 A9B7 81 B8			.byte a(scr3end)
   348 A9B9 27 27 27 27 27 27 + :20	.byte $27						; Pfield
   349 A9CD 07				.byte 7
   350 A9CE 41 B3 A9			.byte $41,a(dlist)				 	; End of display- list, start all over again....
   351
   352 					; Screen RAM
   353 					;
   354 					; 'screen'= small squares
   355 					; 'screen'= big squares
   356
   357 A9D1			screen
   358 A9D1 01 02 01 02 01 02 + 	.byte 1,2,1,2,1,2,1,2,1,2,1,2,1,2,1,2,1,2,1,2
   359 A9E5 02 01 02 01 02 01 + 	.byte 2,1,2,1,2,1,2,1,2,1,2,1,2,1,2,1,2,1,2,1
   360 A9F9 01 02 01 02 01 02 + 	.byte 1,2,1,2,1,2,1,2,1,2,1,2,1,2,1,2,1,2,1,2
   361 AA0D 02 01 02 01 02 01 + 	.byte 2,1,2,1,2,1,2,1,2,1,2,1,2,1,2,1,2,1,2,1
   362 AA21 01 02 01 02 01 02 + 	.byte 1,2,1,2,1,2,1,2,1,2,1,2,1,2,1,2,1,2,1,2
   363 AA35 02 01 02 01 02 01 + 	.byte 2,1,2,1,2,1,2,1,2,1,2,1,2,1,2,1,2,1,2,1
   364 AA49 01 02 01 02 01 02 + 	.byte 1,2,1,2,1,2,1,2,1,2,1,2,1,2,1,2,1,2,1,2
   365 AA5D 02 01 02 01 02 01 + 	.byte 2,1,2,1,2,1,2,1,2,1,2,1,2,1,2,1,2,1,2,1
   366 AA71 01 02 01 02 01 02 + 	.byte 1,2,1,2,1,2,1,2,1,2,1,2,1,2,1,2,1,2,1,2
   367 AA85 02 01 02 01 02 01 + 	.byte 2,1,2,1,2,1,2,1,2,1,2,1,2,1,2,1,2,1,2,1	
   368 AA99 01 02 01 02 01 02 + 	.byte 1,2,1,2,1,2,1,2,1,2,1,2,1,2,1,2,1,2,1,2
   369 AAAD 02 01 02 01 02 01 + 	.byte 2,1,2,1,2,1,2,1,2,1,2,1,2,1,2,1,2,1,2,1	
   370 AAC1 01 02 01 02 01 02 + 	.byte 1,2,1,2,1,2,1,2,1,2,1,2,1,2,1,2,1,2,1,2
   371 AAD5 02 01 02 01 02 01 + 	.byte 2,1,2,1,2,1,2,1,2,1,2,1,2,1,2,1,2,1,2,1
   372 AAE9 01 02 01 02 01 02 + 	.byte 1,2,1,2,1,2,1,2,1,2,1,2,1,2,1,2,1,2,1,2
   373 AAFD 02 01 02 01 02 01 + 	.byte 2,1,2,1,2,1,2,1,2,1,2,1,2,1,2,1,2,1,2,1
   374 AB11 01 02 01 02 01 02 + 	.byte 1,2,1,2,1,2,1,2,1,2,1,2,1,2,1,2,1,2,1,2
   375 AB25 02 01 02 01 02 01 + 	.byte 2,1,2,1,2,1,2,1,2,1,2,1,2,1,2,1,2,1,2,1
   376 AB39 01 02 01 02 01 02 + 	.byte 1,2,1,2,1,2,1,2,1,2,1,2,1,2,1,2,1,2,1,2
   377
   378 AB4D			screen2
   379 AB4D 02 02 01 01 02 02 + 	.byte 2,2,1,1,2,2,1,1,2,2,1,1,2,2,1,1,2,2,1,1
   380 AB61 01 01 02 02 01 01 + 	.byte 1,1,2,2,1,1,2,2,1,1,2,2,1,1,2,2,1,1,2,2
   381 AB75 02 02 01 01 02 02 + 	.byte 2,2,1,1,2,2,1,1,2,2,1,1,2,2,1,1,2,2,1,1
   382 AB89 01 01 02 02 01 01 + 	.byte 1,1,2,2,1,1,2,2,1,1,2,2,1,1,2,2,1,1,2,2
   383 AB9D 02 02 01 01 02 02 + 	.byte 2,2,1,1,2,2,1,1,2,2,1,1,2,2,1,1,2,2,1,1
   384 ABB1 01 01 02 02 01 01 + 	.byte 1,1,2,2,1,1,2,2,1,1,2,2,1,1,2,2,1,1,2,2
   385 ABC5 02 02 01 01 02 02 + 	.byte 2,2,1,1,2,2,1,1,2,2,1,1,2,2,1,1,2,2,1,1
   386 ABD9 01 01 02 02 01 01 + 	.byte 1,1,2,2,1,1,2,2,1,1,2,2,1,1,2,2,1,1,2,2
   387 ABED 02 02 01 01 02 02 + 	.byte 2,2,1,1,2,2,1,1,2,2,1,1,2,2,1,1,2,2,1,1
   388 AC01 01 01 02 02 01 01 + 	.byte 1,1,2,2,1,1,2,2,1,1,2,2,1,1,2,2,1,1,2,2
   389 AC15 02 02 01 01 02 02 + 	.byte 2,2,1,1,2,2,1,1,2,2,1,1,2,2,1,1,2,2,1,1
   390 AC29 01 01 02 02 01 01 + 	.byte 1,1,2,2,1,1,2,2,1,1,2,2,1,1,2,2,1,1,2,2
   391 					
   392 AC3D			screen3
   393 AC3D 02 02 01 01 02 02 + 	.byte 2,2,1,1,2,2,1,1,2,2,1,1,2,2,1,1,2,2,1,1
   394 AC51 01 01 02 02 01 01 + 	.byte 1,1,2,2,1,1,2,2,1,1,2,2,1,1,2,2,1,1,2,2
   395 AC65 02 02 01 01 02 02 + 	.byte 2,2,1,1,2,2,1,1,2,2,1,1,2,2,1,1,2,2,1,1
   396 AC79 01 01 02 02 01 01 + 	.byte 1,1,2,2,1,1,2,2,1,1,2,2,1,1,2,2,1,1,2,2
   397 AC8D 02 02 01 01 02 02 + 	.byte 2,2,1,1,2,2,1,1,2,2,1,1,2,2,1,1,2,2,1,1
   398 ACA1 01 01 02 02 01 01 + 	.byte 1,1,2,2,1,1,2,2,1,1,2,2,1,1,2,2,1,1,2,2
   399 ACB5 02 02 01 01 02 02 + 	.byte 2,2,1,1,2,2,1,1,2,2,1,1,2,2,1,1,2,2,1,1
   400 ACC9 01 01 02 02 01 01 + 	.byte 1,1,2,2,1,1,2,2,1,1,2,2,1,1,2,2,1,1,2,2
   401 ACDD 02 02 01 01 02 02 + 	.byte 2,2,1,1,2,2,1,1,2,2,1,1,2,2,1,1,2,2,1,1
   402 ACF1 01 01 02 02 01 01 + 	.byte 1,1,2,2,1,1,2,2,1,1,2,2,1,1,2,2,1,1,2,2
   403 AD05 02 02 01 01 02 02 + 	.byte 2,2,1,1,2,2,1,1,2,2,1,1,2,2,1,1,2,2,1,1
   404 AD19 01 01 02 02 01 01 + 	.byte 1,1,2,2,1,1,2,2,1,1,2,2,1,1,2,2,1,1,2,2
   405 AD2D 02 02 01 01 02 02 + 	.byte 2,2,1,1,2,2,1,1,2,2,1,1,2,2,1,1,2,2,1,1
   406 AD41 01 01 02 02 01 01 + 	.byte 1,1,2,2,1,1,2,2,1,1,2,2,1,1,2,2,1,1,2,2
   407 AD55 02 02 01 01 02 02 + 	.byte 2,2,1,1,2,2,1,1,2,2,1,1,2,2,1,1,2,2,1,1
   408 AD69 01 01 02 02 01 01 + 	.byte 1,1,2,2,1,1,2,2,1,1,2,2,1,1,2,2,1,1,2,2
   409 AD7D 02 02 01 01 02 02 + 	.byte 2,2,1,1,2,2,1,1,2,2,1,1,2,2,1,1,2,2,1,1
   410 AD91 01 01 02 02 01 01 + 	.byte 1,1,2,2,1,1,2,2,1,1,2,2,1,1,2,2,1,1,2,2
   411 ADA5 02 02 01 01 02 02 + 	.byte 2,2,1,1,2,2,1,1,2,2,1,1,2,2,1,1,2,2,1,1
   412 ADB9 01 01 02 02 01 01 + 	.byte 1,1,2,2,1,1,2,2,1,1,2,2,1,1,2,2,1,1,2,2
   413 ADCD 02 02 01 01 02 02 + 	.byte 2,2,1,1,2,2,1,1,2,2,1,1,2,2,1,1,2,2,1,1
   414 ADE1 01 01 02 02 01 01 + 	.byte 1,1,2,2,1,1,2,2,1,1,2,2,1,1,2,2,1,1,2,2
   415 ADF5 02 02 01 01 02 02 + 	.byte 2,2,1,1,2,2,1,1,2,2,1,1,2,2,1,1,2,2,1,1
   416 AE09 01 01 02 02 01 01 + 	.byte 1,1,2,2,1,1,2,2,1,1,2,2,1,1,2,2,1,1,2,2
   417 AE1D 02 02 01 01 02 02 + 	.byte 2,2,1,1,2,2,3+64,3+64,3+64,3+64,3+64,3+64,2,2,1,1,2,2,1,1
   418 AE31 01 01 02 02 01 43 + 	.byte 1,1,2,2,1,3+64,3+64,3+64,3+64,3+64,3+64,3+64,3+64,3+64,3+64,3+64,3+64,3+64,2,2
   419 AE45 02 02 01 01 02 43 + 	.byte 2,2,1,1,2,3+64,3+64,3+64,3+64,3+64,3+64,3+64,3+64,3+64,3+64,1,2,2,1,1
   420 AE59 01 01 02 02 01 01 + 	.byte 1,1,2,2,1,1,2,3+64,3+64,3+64,3+64,3+64,1,1,2,2,1,1,2,2
   421 AE6D 02 02 01 01 02 02 + 	.byte 2,2,1,1,2,2,1,1,2,2,1,1,2,2,1,1,2,2,1,1
   422 AE81 01 01 02 02 01 01 + 	.byte 1,1,2,2,1,1,2,2,1,1,2,2,1,1,2,2,1,1,2,2
   423 AE95 02 02 01 01 02 02 + 	.byte 2,2,1,1,2,2,1,1,2,2,1,1,2,2,1,1,2,2,3+64,3+64
   424 AEA9 01 01 02 02 01 01 + 	.byte 1,1,2,2,1,1,2,2,1,1,2,2,1,1,2,3+64,3+64,3+64,3+64,3+64
   425 AEBD 02 02 01 01 02 02 + 	.byte 2,2,1,1,2,2,1,1,2,2,1,1,2,2,1,1,3+64,3+64,3+64,3+64
   426 AED1 01 01 02 02 01 01 + 	.byte 1,1,2,2,1,1,2,2,1,1,2,2,1,1,2,2,1,1,2,2
   427 AEE5 02 02 01 01 02 02 + 	.byte 2,2,1,1,2,2,1,1,2,2,1,1,2,2,1,1,2,2,1,1
   428 AEF9 01 01 02 02 01 01 + 	.byte 1,1,2,2,1,1,2,2,1,1,2,2,1,1,2,2,1,1,2,2
   429 AF0D 02 02 01 01 02 02 + 	.byte 2,2,1,1,2,2,3+64,3+64,3+64,3+64,3+64,3+64,2,2,1,1,2,2,1,1
   430 AF21 01 01 02 02 01 43 + 	.byte 1,1,2,2,1,3+64,3+64,3+64,3+64,3+64,3+64,3+64,3,3,3,3,3,3,2,2
   431 AF35 02 02 01 01 02 43 + 	.byte 2,2,1,1,2,3+64,3+64,3+64,3+64,3+64,3+64,3+64,3+64,3+64,3+64,1,2,2,1,1
   432 AF49 01 01 02 02 01 01 + 	.byte 1,1,2,2,1,1,2,3+64,3+64,3+64,3+64,3+64,1,1,2,2,1,1,2,2
   433 AF5D 02 02 01 01 02 02 + 	.byte 2,2,1,1,2,2,1,1,2,2,1,1,2,2,1,1,2,2,1,1
   434 AF71 01 01 02 02 01 01 + 	.byte 1,1,2,2,1,1,2,2,1,1,2,2,1,1,2,2,1,1,2,2
   435 AF85 02 02 01 01 02 02 + 	.byte 2,2,1,1,2,2,1,1,2,2,1,1,2,2,1,1,2,2,1,1
   436 AF99 01 01 02 02 01 01 + 	.byte 1,1,2,2,1,1,2,2,3+64,3+64,3+64,3+64,3+64,1,2,2,1,1,2,2
   437 AFAD 02 02 01 01 02 02 + 	.byte 2,2,1,1,2,2,1,1,3+64,2,1,1,2,3+64,1,1,2,2,1,1
   438 AFC1 01 01 02 02 01 01 + 	.byte 1,1,2,2,1,1,2,3+64,1,1,2,2,1,3+64,2,2,1,1,2,2
   439 AFD5 02 02 01 01 02 02 + 	.byte 2,2,1,1,2,2,1,1,3+64,2,1,1,3+64,2,1,1,2,2,1,1
   440 AFE9 01 01 02 02 01 01 + 	.byte 1,1,2,2,1,1,2,2,1,3+64,3+64,3+64,1,1,2,2,1,1,2,2
   441 AFFD 02 02 01 01 02 02 + 	.byte 2,2,1,1,2,2,3+64,3+64,3+64,3+64,3+64,3+64,2,2,1,1,2,2,1,1
   442 B011 01 01 02 02 01 43 + 	.byte 1,1,2,2,1,3+64,3+64,3+64,3+64,3+64,3+64,3+64,3+64,3+64,3+64,3+64,3+64,3+64,2,2
   443 B025 02 02 01 01 02 43 + 	.byte 2,2,1,1,2,3+64,3+64,3+64,3+64,3+64,3+64,3+64,3+64,3+64,3+64,1,2,2,1,1
   444 B039 01 01 02 02 01 01 + 	.byte 1,1,2,2,1,1,2,3+64,3+64,3+64,3+64,3+64,1,1,2,2,1,1,2,2
   445 B04D 02 02 01 01 02 02 + 	.byte 2,2,1,1,2,2,1,1,2,2,1,1,2,2,1,1,2,2,1,1
   446 B061 01 01 02 02 01 01 + 	.byte 1,1,2,2,1,1,2,2,1,1,2,2,1,1,2,2,1,1,2,2
   447 B075 02 02 01 01 02 02 + 	.byte 2,2,1,1,2,2,1,1,2,2,1,1,2,2,1,1,2,2,1,1
   448 B089 01 01 02 02 01 01 + 	.byte 1,1,2,2,1,1,2,2,1,1,2,2,1,1,2,2,1,1,2,2
   449 B09D 02 02 01 01 02 02 + 	.byte 2,2,1,1,2,2,1,1,2,2,1,1,2,2,1,1,2,2,1,1
   450 B0B1 01 01 02 02 01 01 + 	.byte 1,1,2,2,1,1,2,2,1,1,2,2,1,1,2,2,1,1,2,2
   451 B0C5 02 02 01 01 02 02 + 	.byte 2,2,1,1,2,2,1,1,2,2,1,1,2,2,1,1,2,2,1,1
   452 B0D9 01 01 02 02 01 01 + 	.byte 1,1,2,2,1,1,2,2,1,1,2,2,1,1,2,2,1,1,2,2
   453 B0ED 02 02 01 01 02 02 + 	.byte 2,2,1,1,2,2,3+64,3+64,3+64,3+64,3+64,3+64,2,2,1,1,2,2,1,1
   454 B101 01 01 02 02 01 43 + 	.byte 1,1,2,2,1,3+64,3+64,3+64,3+64,3+64,3+64,3+64,3+64,3+64,3+64,3+64,3+64,3+64,2,2
   455 B115 02 02 01 01 02 43 + 	.byte 2,2,1,1,2,3+64,3+64,3+64,3+64,3+64,3+64,3+64,3+64,3+64,3+64,1,2,2,1,1
   456 B129 01 01 02 02 01 01 + 	.byte 1,1,2,2,1,1,2,3+64,3+64,3+64,3+64,3+64,1,1,2,2,1,1,2,2
   457 B13D 02 02 01 01 02 02 + 	.byte 2,2,1,1,2,2,1,1,2,2,1,1,2,2,1,1,2,2,1,1
   458 B151 01 01 02 02 01 01 + 	.byte 1,1,2,2,1,1,2,2,1,1,2,2,1,1,2,2,1,1,2,2
   459 B165 02 02 01 01 02 02 + 	.byte 2,2,1,1,2,2,1,1,2,2,1,1,2,2,1,1,2,2,1,1
   460 B179 01 01 02 02 01 01 + 	.byte 1,1,2,2,1,1,2,2,1,1,2,2,1,1,2,2,1,1,2,2
   461 B18D 02 02 01 01 02 02 + 	.byte 2,2,1,1,2,2,1,1,2,2,1,1,2,2,1,1,2,2,1,1
   462 B1A1 01 01 02 02 01 01 + 	.byte 1,1,2,2,1,1,2,2,1,1,2,2,1,1,2,2,1,1,2,2
   463 B1B5 02 02 01 01 02 02 + 	.byte 2,2,1,1,2,2,1,1,2,2,1,1,2,2,1,1,2,2,1,1
   464 B1C9 01 01 02 02 01 01 + 	.byte 1,1,2,2,1,1,2,2,1,1,2,2,1,1,2,2,1,1,2,2
   465 B1DD 02 02 01 01 02 02 + 	.byte 2,2,1,1,2,2,3+64,3+64,3+64,3+64,3+64,3+64,2,2,1,1,2,2,1,1
   466 B1F1 01 01 02 02 01 43 + 	.byte 1,1,2,2,1,3+64,3+64,3+64,3+64,3+64,3+64,3+64,3+64,3+64,3+64,3+64,3+64,3+64,2,2
   467 B205 02 02 01 01 02 43 + 	.byte 2,2,1,1,2,3+64,3+64,3+64,3+64,3+64,3+64,3+64,3+64,3+64,3+64,1,2,2,1,1
   468 B219 01 01 02 02 01 01 + 	.byte 1,1,2,2,1,1,2,3+64,3+64,3+64,3+64,3+64,1,1,2,2,1,1,2,2
   469 B22D 02 02 01 01 02 02 + 	.byte 2,2,1,1,2,2,1,1,2,2,1,1,2,2,1,1,2,2,1,1
   470 B241 01 01 02 02 01 01 + 	.byte 1,1,2,2,1,1,2,2,1,1,2,2,1,1,2,2,1,1,2,2
   471 B255 02 02 01 01 02 02 + 	.byte 2,2,1,1,2,2,1,1,2,2,1,1,2,2,1,1,2,2,1,1
   472 B269 01 01 02 02 01 01 + 	.byte 1,1,2,2,1,1,2,2,1,1,2,2,1,1,2,2,1,1,2,2
   473 B27D 02 02 01 01 02 02 + 	.byte 2,2,1,1,2,2,1,1,2,2,1,1,2,2,1,1,2,2,1,1
   474 B291 01 01 02 02 01 01 + 	.byte 1,1,2,2,1,1,2,2,1,1,2,2,1,1,2,2,1,1,2,2
   475 B2A5 02 02 01 01 02 02 + 	.byte 2,2,1,1,2,2,1,1,2,2,1,1,2,2,1,1,2,2,1,1
   476 B2B9 01 01 02 02 01 01 + 	.byte 1,1,2,2,1,1,2,2,1,1,2,2,1,1,2,2,1,1,2,2
   477 B2CD 02 02 01 01 02 02 + 	.byte 2,2,1,1,2,2,3+64,3+64,3+64,3+64,3+64,3+64,2,2,1,1,2,2,1,1
   478 B2E1 01 01 02 02 01 43 + 	.byte 1,1,2,2,1,3+64,3+64,3+64,3+64,3+64,3+64,3+64,3+64,3+64,3+64,3+64,3+64,3+64,2,2
   479 B2F5 02 02 01 01 02 43 + 	.byte 2,2,1,1,2,3+64,3+64,3+64,3+64,3+64,3+64,3+64,3+64,3+64,3+64,1,2,2,1,1
   480 B309 01 01 02 02 01 01 + 	.byte 1,1,2,2,1,1,2,3+64,3+64,3+64,3+64,3+64,1,1,2,2,1,1,2,2
   481 B31D 02 02 01 01 02 02 + 	.byte 2,2,1,1,2,2,1,1,2,2,1,1,2,2,1,1,2,2,1,1
   482 B331 01 01 02 02 01 01 + 	.byte 1,1,2,2,1,1,2,2,1,1,2,2,1,1,2,2,1,1,2,2
   483 B345 02 02 01 01 02 02 + 	.byte 2,2,1,1,2,2,1,1,2,2,1,1,2,2,1,1,2,2,1,1
   484 B359 01 01 02 02 01 01 + 	.byte 1,1,2,2,1,1,2,2,1,1,2,2,1,1,2,2,1,1,2,2
   485 B36D 02 02 01 01 02 02 + 	.byte 2,2,1,1,2,2,1,1,2,2,1,1,2,2,1,1,2,2,1,1
   486 B381 01 01 02 02 01 01 + 	.byte 1,1,2,2,1,1,2,2,1,1,2,2,1,1,2,2,1,1,2,2
   487 B395 02 02 01 01 02 02 + 	.byte 2,2,1,1,2,2,1,1,2,2,1,1,2,2,1,1,2,2,1,1
   488 B3A9 01 01 02 02 01 01 + 	.byte 1,1,2,2,1,1,2,2,1,1,2,2,1,1,2,2,1,1,2,2
   489 B3BD 02 02 01 01 02 02 + 	.byte 2,2,1,1,2,2,3+64,3+64,3+64,3+64,3+64,3+64,2,2,1,1,2,2,1,1
   490 B3D1 01 01 02 02 01 43 + 	.byte 1,1,2,2,1,3+64,3+64,3+64,3+64,3+64,3+64,3+64,3+64,3+64,3+64,3+64,3+64,3+64,2,2
   491 B3E5 02 02 01 01 02 43 + 	.byte 2,2,1,1,2,3+64,3+64,3+64,3+64,3+64,3+64,3+64,3+64,3+64,3+64,1,2,2,1,1
   492 B3F9 01 01 02 02 01 43 + 	.byte 1,1,2,2,1,3+64,3+64,3+64,3+64,3+64,3+64,3+64,3+64,3+64,3+64,3+64,3+64,3+64,2,2
   493 B40D 02 02 01 01 02 43 + 	.byte 2,2,1,1,2,3+64,3+64,3+64,3+64,3+64,3+64,3+64,3+64,3+64,3+64,1,2,2,1,1
   494 B421 01 01 02 02 01 43 + 	.byte 1,1,2,2,1,3+64,3+64,3+64,3+64,3+64,3+64,3+64,3+64,3+64,3+64,3+64,3+64,3+64,2,2
   495 B435 02 02 01 01 02 43 + 	.byte 2,2,1,1,2,3+64,3+64,3+64,3+64,3+64,3+64,3+64,3+64,3+64,3+64,1,2,2,1,1
   496 B449 01 01 02 02 01 43 + 	.byte 1,1,2,2,1,3+64,3+64,3+64,3+64,3+64,3+64,3+64,3+64,3+64,3+64,3+64,3+64,3+64,2,2
   497 B45D 02 02 01 01 02 43 + 	.byte 2,2,1,1,2,3+64,3+64,3+64,3+64,3+64,3+64,3+64,3+64,3+64,3+64,1,2,2,1,1
   498 B471 01 01 02 02 01 01 + 	.byte 1,1,2,2,1,1,2,2,1,1,2,2,1,1,2,2,1,1,2,2
   499 B485 02 02 01 01 02 02 + 	.byte 2,2,1,1,2,2,1,1,2,2,1,1,2,2,1,1,2,2,1,1
   500 B499 01 01 02 02 01 43 + 	.byte 1,1,2,2,1,3+64,3+64,3+64,3+64,3+64,3+64,3+64,3+64,3+64,3+64,3+64,3+64,3+64,2,2
   501 B4AD 02 02 01 01 02 43 + 	.byte 2,2,1,1,2,3+64,3+64,3+64,3+64,3+64,3+64,3+64,3+64,3+64,3+64,1,2,2,1,1
   502 B4C1 01 01 02 02 01 43 + 	.byte 1,1,2,2,1,3+64,3+64,3+64,3+64,3+64,3+64,3+64,3+64,3+64,3+64,3+64,3+64,3+64,2,2
   503 B4D5 02 02 01 01 02 43 + 	.byte 2,2,1,1,2,3+64,3+64,3+64,3+64,3+64,3+64,3+64,3+64,3+64,3+64,1,2,2,1,1
   504 B4E9 01 01 02 02 01 43 + 	.byte 1,1,2,2,1,3+64,3+64,3+64,3+64,3+64,3+64,3+64,3+64,3+64,3+64,3+64,3+64,3+64,2,2
   505 B4FD 02 02 01 01 02 43 + 	.byte 2,2,1,1,2,3+64,3+64,3+64,3+64,3+64,3+64,3+64,3+64,3+64,3+64,1,2,2,1,1
   506 B511 01 01 02 02 01 01 + 	.byte 1,1,2,2,1,1,2,2,1,1,2,2,1,1,2,2,1,1,2,2
   507 B525 02 02 01 01 02 02 + 	.byte 2,2,1,1,2,2,1,1,2,2,1,1,2,2,1,1,2,2,1,1
   508 B539 01 01 02 02 01 01 + 	.byte 1,1,2,2,1,1,2,2,1,1,2,2,1,1,2,2,1,1,2,2
   509 B54D 02 02 01 01 02 02 + 	.byte 2,2,1,1,2,2,1,1,2,2,1,1,2,2,1,1,2,2,1,1
   510 B561 01 01 02 02 01 43 + 	.byte 1,1,2,2,1,3+64,3+64,3+64,3+64,3+64,3+64,3+64,3+64,3+64,3+64,3+64,3+64,3+64,2,2
   511 B575 02 02 01 01 02 43 + 	.byte 2,2,1,1,2,3+64,3+64,3+64,3+64,3+64,3+64,3+64,3+64,3+64,3+64,1,2,2,1,1
   512 B589 01 01 02 02 01 43 + 	.byte 1,1,2,2,1,3+64,3+64,3+64,3+64,3+64,3+64,3+64,3+64,3+64,3+64,3+64,3+64,3+64,2,2
   513 B59D 02 02 01 01 02 43 + 	.byte 2,2,1,1,2,3+64,3+64,3+64,3+64,3+64,3+64,3+64,3+64,3+64,3+64,1,2,2,1,1
   514 B5B1 01 01 02 02 01 43 + 	.byte 1,1,2,2,1,3+64,3+64,3+64,3+64,3+64,3+64,3+64,3+64,3+64,3+64,3+64,3+64,3+64,2,2
   515 B5C5 02 02 01 01 02 43 + 	.byte 2,2,1,1,2,3+64,3+64,3+64,3+64,3+64,3+64,3+64,3+64,3+64,3+64,1,2,2,1,1
   516 B5D9 01 01 02 02 01 01 + 	.byte 1,1,2,2,1,1,2,3+64,3+64,3+64,3+64,3+64,1,1,2,2,1,1,2,2
   517 B5ED 02 02 01 01 02 02 + 	.byte 2,2,1,1,2,2,1,1,2,2,1,1,2,2,1,1,2,2,1,1
   518 B601 01 01 02 02 01 01 + 	.byte 1,1,2,2,1,1,2,2,1,1,2,2,1,1,2,2,1,1,2,2
   519 B615 02 02 01 01 02 02 + 	.byte 2,2,1,1,2,2,1,1,2,2,1,1,2,2,1,1,2,2,1,1
   520 B629 01 01 02 02 01 01 + 	.byte 1,1,2,2,1,1,2,2,1,1,2,2,1,1,2,2,1,1,2,2
   521 B63D 02 02 01 01 02 02 + 	.byte 2,2,1,1,2,2,1,1,2,2,1,1,2,2,1,1,2,2,1,1
   522 B651 01 01 02 02 01 01 + 	.byte 1,1,2,2,1,1,2,2,1,1,2,2,1,1,2,2,1,1,2,2
   523 B665 02 02 01 01 02 02 + 	.byte 2,2,1,1,2,2,1,1,2,2,1,1,2,2,1,1,2,2,1,1
   524 B679 01 01 02 02 01 01 + 	.byte 1,1,2,2,1,1,2,2,1,1,2,2,1,1,2,2,1,1,2,2
   525 B68D 02 02 01 01 02 02 + 	.byte 2,2,1,1,2,2,1,1,2,2,1,1,2,2,1,1,2,2,1,1
   526 B6A1 01 01 02 02 01 01 + 	.byte 1,1,2,2,1,1,2,2,1,1,2,2,1,1,2,2,1,1,2,2
   527 B6B5 02 02 01 01 02 02 + 	.byte 2,2,1,1,2,2,1,1,2,2,1,1,2,2,1,1,2,2,1,1
   528 B6C9 01 01 02 02 01 01 + 	.byte 1,1,2,2,1,1,2,2,1,1,4,4,4,1,2,2,1,1,2,2
   529 B6DD 02 02 01 01 02 02 + 	.byte 2,2,1,1,2,2,1,1,2,2,1,1,2,2,1,1,2,2,1,1
   530 B6F1 01 01 02 02 01 01 + 	.byte 1,1,2,2,1,1,2,2,1,1,3+64,2,1,4,2,2,1,1,2,2
   531 B705 02 02 01 01 02 02 + 	.byte 2,2,1,1,2,2,1,1,2,2,1,1,2,2,1,1,2,2,1,1
   532 B719 01 01 02 02 01 01 + 	.byte 1,1,2,2,1,1,2,2,1,1,2,2,1,1,2,2,1,1,2,2
   533 B72D 02 02 01 01 02 02 + 	.byte 2,2,1,1,2,2,1,1,2,2,1,1,3+64,2,1,1,2,2,1,1
   534 B741 01 01 02 02 01 01 + 	.byte 1,1,2,2,1,1,2,2,1,1,2,2,1,1,2,2,1,1,2,2
   535 B755 02 02 01 01 02 02 + 	.byte 2,2,1,1,2,2,1,1,2,3+64,1,1,2,2,1,1,2,2,1,1
   536 B769 01 01 02 02 01 01 + 	.byte 1,1,2,2,1,1,2,2,1,1,2,2,1,1,2,2,1,1,2,2
   537 B77D 02 02 01 01 02 02 + 	.byte 2,2,1,1,2,2,1,1,2,2,1,1,2,2,1,1,2,2,1,1
   538 B791 01 01 02 02 01 01 + 	.byte 1,1,2,2,1,1,2,2,3+64,1,2,2,1,1,2,2,1,1,2,2
   539 B7A5 02 02 01 01 02 02 + 	.byte 2,2,1,1,2,2,1,1,2,2,3+64,1,2,2,1,1,2,2,1,1
   540 B7B9 01 01 02 02 01 01 + 	.byte 1,1,2,2,1,1,2,2,1,1,2,2,1,1,2,2,1,1,2,2
   541 B7CD 02 02 01 01 02 02 + 	.byte 2,2,1,1,2,2,1,1,2,2,1,1,2,2,1,1,2,2,1,1
   542 B7E1 01 01 02 02 01 01 + 	.byte 1,1,2,2,1,1,2,2,1,1,2,2,1,1,2,2,1,1,2,2
   543 B7F5 02 02 01 01 02 02 + 	.byte 2,2,1,1,2,2,1,1,2,2,1,1,2,2,1,1,2,2,1,1
   544 B809 01 01 02 02 01 01 + 	.byte 1,1,2,2,1,1,2,2,1,1,2,2,1,1,2,2,1,1,2,2
   545 B81D 02 02 01 01 02 02 + 	.byte 2,2,1,1,2,2,1,1,2,2,1,1,2,2,1,1,2,2,1,1
   546 B831 01 01 02 02 01 01 + 	.byte 1,1,2,2,1,1,2,2,1,1,2,2,1,1,2,2,1,1,2,2
   547 B845 02 02 01 01 02 02 + 	.byte 2,2,1,1,2,2,1,1,2,2,1,1,2,2,1,1,2,2,1,1
   548 B859 01 01 02 02 01 01 + 	.byte 1,1,2,2,1,1,2,2,1,1,2,2,1,1,2,2,1,1,2,2
   549 B86D 02 02 01 01 02 02 + 	.byte 2,2,1,1,2,2,1,1,2,2,1,1,2,2,1,1,2,2,1,1
   550 					
   551 B881			scr3end
   552 B881 01 01 02 02 01 01 + 	.byte 1,1,2,2,1,1,2,2,1,1,2,2,1,1,2,2,1,1,2,2
   553 B895 02 02 01 01 02 02 + 	.byte 2,2,1,1,2,2,1,1,2,2,1,1,2,2,1,1,2,2,1,1
   554 B8A9 01 01 02 02 01 01 + 	.byte 1,1,2,2,1,1,2,2,1,1,2,2,1,1,2,2,1,1,2,2
   555 B8BD 02 02 01 01 02 02 + 	.byte 2,2,1,1,2,2,1,1,2,2,1,1,2,2,1,1,2,2,1,1
   556 B8D1 01 01 02 02 01 01 + 	.byte 1,1,2,2,1,1,2,2,1,1,2,2,1,1,2,2,1,1,2,2
   557 B8E5 02 02 01 01 02 02 + 	.byte 2,2,1,1,2,2,1,1,2,2,1,1,2,2,1,1,2,2,1,1
   558 B8F9 01 01 02 02 01 01 + 	.byte 1,1,2,2,1,1,2,2,1,1,2,2,1,1,2,2,1,1,2,2
   559 B90D 02 02 01 01 02 02 + 	.byte 2,2,1,1,2,2,1,1,2,2,1,1,2,2,1,1,2,2,1,1
   560 B921 01 01 02 02 01 01 + 	.byte 1,1,2,2,1,1,2,2,1,1,2,2,1,1,2,2,1,1,2,2
   561 B935 02 02 01 01 02 02 + 	.byte 2,2,1,1,2,2,1,1,2,2,1,1,2,2,1,1,2,2,1,1
   562 B949 01 01 02 02 01 01 + 	.byte 1,1,2,2,1,1,2,2,1,1,2,2,1,1,2,2,1,1,2,2
   563 B95D 02 02 01 01 02 02 + 	.byte 2,2,1,1,2,2,1,1,2,2,1,1,2,2,1,1,2,2,1,1
   564 B971 01 01 02 02 01 01 + 	.byte 1,1,2,2,1,1,2,2,1,1,2,2,1,1,2,2,1,1,2,2
   565 B985 02 02 01 01 02 02 + 	.byte 2,2,1,1,2,2,1,1,2,2,1,1,2,2,1,1,2,2,1,1
   566 B999 01 01 02 02 01 01 + 	.byte 1,1,2,2,1,1,2,2,1,1,2,2,1,1,2,2,1,1,2,2
   567 B9AD 02 02 01 01 02 02 + 	.byte 2,2,1,1,2,2,1,1,2,2,1,1,2,2,1,1,2,2,1,1
   568 B9C1 01 01 02 02 01 01 + 	.byte 1,1,2,2,1,1,2,2,1,1,2,2,1,1,2,2,1,1,2,2
   569 B9D5 02 02 01 01 02 02 + 	.byte 2,2,1,1,2,2,1,1,2,2,1,1,2,2,1,1,2,2,1,1
   570 B9E9 01 01 02 02 01 01 + 	.byte 1,1,2,2,1,1,2,2,1,1,2,2,1,1,2,2,1,1,2,2
   571 B9FD 02 02 01 01 02 02 + 	.byte 2,2,1,1,2,2,1,1,2,2,1,1,2,2,1,1,2,2,1,1
   572 					
   573
   574 					; Charset
   575 					; Dump of:	ANTIK2.FNT
   576
   577 BA11				org $4400
   578 4400			chset
   579 4400-47FF> 00 00 00 00 + 	.byte 0,0,0,0,0,0,0,0
   580 4408			c1
   581 4408 00 00 00 00 00 00 + 	.byte 0,0,0,0,0,0,0,0
   582 4410			c2
   583 4410 AA 55 AA 55 AA 55 + :4	.byte 170,85
   584
   585 4418 FF FF FF FF FF FF + :8	.byte	$ff
   586 4420 3E 60 3C 06 7C 18 + 	.byte	$3e,$60,$3c,$06,$7c,$18,$00,$00
   587 4428 66 6C 18 30 66 46 + 	.byte	$66,$6c,$18,$30,$66,$46,$00,$1c
   588 4430 36 1C 38 6F 66 3B + 	.byte	$36,$1c,$38,$6f,$66,$3b,$00,$00
   589 4438 18 18 18 00 00 00 + 	.byte	$18,$18,$18,$00,$00,$00,$00,$06
   590 4440 0E 1C 18 18 1C 0E + 	.byte	$0e,$1c,$18,$18,$1c,$0e,$06,$60
   591 4448 70 38 18 18 38 70 + 	.byte	$70,$38,$18,$18,$38,$70,$60,$00
   592 4450 66 3C FF 3C 66 00 + 	.byte	$66,$3c,$ff,$3c,$66,$00,$00,$00
   593 4458 18 18 7E 18 18 00 + 	.byte	$18,$18,$7e,$18,$18,$00,$00,$00
   594 4460 00 00 00 00 18 18 + 	.byte	$00,$00,$00,$00,$18,$18,$30,$00
   595 4468 00 00 7E 00 00 00 + 	.byte	$00,$00,$7e,$00,$00,$00,$00,$00
   596 4470 00 00 00 00 18 18 + 	.byte	$00,$00,$00,$00,$18,$18,$00,$00
   597 4478 06 0C 18 30 60 40 + 	.byte	$06,$0c,$18,$30,$60,$40,$00,$7c
   598 4480 CE C6 C6 C6 E6 7C + 	.byte	$ce,$c6,$c6,$c6,$e6,$7c,$00,$38
   599 4488 38 18 18 18 18 18 + 	.byte	$38,$18,$18,$18,$18,$18,$00,$7c
   600 4490 E6 0C 18 30 60 FE + 	.byte	$e6,$0c,$18,$30,$60,$fe,$00,$7e
   601 4498 0C 18 0C 06 66 3C + 	.byte	$0c,$18,$0c,$06,$66,$3c,$00,$0c
   602 44A0 1C 3C 6C CC FE 0C + 	.byte	$1c,$3c,$6c,$cc,$fe,$0c,$00,$7e
   603 44A8 60 7C 06 06 66 3C + 	.byte	$60,$7c,$06,$06,$66,$3c,$00,$7c
   604 44B0 C6 C0 FC CE E6 7C + 	.byte	$c6,$c0,$fc,$ce,$e6,$7c,$00,$7e
   605 44B8 06 0C 18 30 30 30 + 	.byte	$06,$0c,$18,$30,$30,$30,$00,$7c
   606 44C0 CE E6 7C CE E6 7C + 	.byte	$ce,$e6,$7c,$ce,$e6,$7c,$00,$7c
   607 44C8 CE C6 E6 7E 0C 18 + 	.byte	$ce,$c6,$e6,$7e,$0c,$18,$30,$00
   608 44D0 38 38 00 00 38 38 + 	.byte	$38,$38,$00,$00,$38,$38,$00,$00
   609 44D8 00 18 18 00 18 18 + 	.byte	$00,$18,$18,$00,$18,$18,$30,$06
   610 44E0 0C 18 30 18 0C 06 + 	.byte	$0c,$18,$30,$18,$0c,$06,$00,$00
   611 44E8 00 7E 00 00 7E 00 + 	.byte	$00,$7e,$00,$00,$7e,$00,$00,$60
   612 44F0 30 18 0C 18 30 60 + 	.byte	$30,$18,$0c,$18,$30,$60,$00,$3c
   613 44F8 66 66 0C 18 00 18 + 	.byte	$66,$66,$0c,$18,$00,$18,$00,$6a
   614 4500 C9 00 7E 00 93 56 + 	.byte	$c9,$00,$7e,$00,$93,$56,$00,$7a
   615 4508 9C 34 36 3E 66 66 + 	.byte	$9c,$34,$36,$3e,$66,$66,$c3,$ee
   616 4510 73 6B 6B 7E 6B 6B + 	.byte	$73,$6b,$6b,$7e,$6b,$6b,$de,$3d
   617 4518 66 D4 D0 D0 D0 E6 + 	.byte	$66,$d4,$d0,$d0,$d0,$e6,$7c,$ee
   618 4520 73 6B 6B 6B 6B 63 + 	.byte	$73,$6b,$6b,$6b,$6b,$63,$de,$fe
   619 4528 66 60 78 60 63 66 + 	.byte	$66,$60,$78,$60,$63,$66,$7c,$fe
   620 4530 66 60 78 60 60 68 + 	.byte	$66,$60,$78,$60,$60,$68,$70,$3d
   621 4538 66 D6 D0 DE D6 66 + 	.byte	$66,$d6,$d0,$de,$d6,$66,$3c,$c7
   622 4540 C6 C6 CE FE E6 C6 + 	.byte	$c6,$c6,$ce,$fe,$e6,$c6,$ce,$34
   623 4548 18 18 18 18 18 1C + 	.byte	$18,$18,$18,$18,$18,$1c,$2c,$7f
   624 4550 16 16 56 06 DE 7C + 	.byte	$16,$16,$56,$06,$de,$7c,$78,$c6
   625 4558 6D 6C 78 78 6C 6C + 	.byte	$6d,$6c,$78,$78,$6c,$6c,$c6,$e0
   626 4560 60 60 60 61 66 7E + 	.byte	$60,$60,$60,$61,$66,$7e,$78,$c6
   627 4568 EE FE D6 C6 C6 C6 + 	.byte	$ee,$fe,$d6,$c6,$c6,$c6,$c6,$c6
   628 4570 C6 E6 F6 DE CE C6 + 	.byte	$c6,$e6,$f6,$de,$ce,$c6,$c6,$7d
   629 4578 CE D6 D6 D6 D6 E6 + 	.byte	$ce,$d6,$d6,$d6,$d6,$e6,$7c,$fc
   630 4580 66 6E 66 6D 60 60 + 	.byte	$66,$6e,$66,$6d,$60,$60,$c0,$7d
   631 4588 E6 D6 D6 D6 D6 CE + 	.byte	$e6,$d6,$d6,$d6,$d6,$ce,$7f,$dd
   632 4590 66 6E 66 7C 6C 66 + 	.byte	$66,$6e,$66,$7c,$6c,$66,$e3,$ba
   633 4598 66 60 3C 06 46 66 + 	.byte	$66,$60,$3c,$06,$46,$66,$5c,$fe
   634 45A0 30 68 68 62 6C 74 + 	.byte	$30,$68,$68,$62,$6c,$74,$3c,$e6
   635 45A8 66 66 66 66 6E 6E + 	.byte	$66,$66,$66,$66,$6e,$6e,$3f,$c3
   636 45B0 66 66 66 66 66 3D + 	.byte	$66,$66,$66,$66,$66,$3d,$18,$e3
   637 45B8 C3 C3 D3 CB DF 77 + 	.byte	$c3,$c3,$d3,$cb,$df,$77,$62,$c0
   638 45C0 C3 66 3C 3C 66 C3 + 	.byte	$c3,$66,$3c,$3c,$66,$c3,$03,$c3
   639 45C8 66 66 3C 5A 18 18 + 	.byte	$66,$66,$3c,$5a,$18,$18,$18,$7e
   640 45D0 C6 0C 38 7C 60 C3 + 	.byte	$c6,$0c,$38,$7c,$60,$c3,$fe,$00
   641 45D8 1E 18 18 18 18 1E + 	.byte	$1e,$18,$18,$18,$18,$1e,$00,$00
   642 45E0 40 60 30 18 0C 06 + 	.byte	$40,$60,$30,$18,$0c,$06,$00,$00
   643 45E8 78 18 18 18 18 78 + 	.byte	$78,$18,$18,$18,$18,$78,$00,$00
   644 45F0 08 1C 36 63 00 00 + 	.byte	$08,$1c,$36,$63,$00,$00,$00,$00
   645 45F8 00 00 00 00 00 FF + 	.byte	$00,$00,$00,$00,$00,$ff,$00,$00
   646 4600 36 7F 7F 3E 1C 08 + 	.byte	$36,$7f,$7f,$3e,$1c,$08,$00,$18
   647 4608 18 0C 07 07 0C 18 + 	.byte	$18,$0c,$07,$07,$0c,$18,$18,$03
   648 4610 03 03 03 03 03 03 + 	.byte	$03,$03,$03,$03,$03,$03,$03,$18
   649 4618 18 38 F0 E0 00 00 + 	.byte	$18,$38,$f0,$e0,$00,$00,$00,$18
   650 4620 18 30 E0 E0 30 18 + 	.byte	$18,$30,$e0,$e0,$30,$18,$18,$00
   651 4628 00 00 C0 E0 30 18 + 	.byte	$00,$00,$c0,$e0,$30,$18,$18,$03
   652 4630 07 0E 1C 38 70 E0 + 	.byte	$07,$0e,$1c,$38,$70,$e0,$c0,$c0
   653 4638 E0 70 38 1C 0E 07 + 	.byte	$e0,$70,$38,$1c,$0e,$07,$03,$01
   654 4640 03 07 0F 1F 3F 7F + 	.byte	$03,$07,$0f,$1f,$3f,$7f,$ff,$00
   655 4648 00 00 00 0F 0F 0F + 	.byte	$00,$00,$00,$0f,$0f,$0f,$0f,$80
   656 4650 C0 E0 F0 F8 FC FE + 	.byte	$c0,$e0,$f0,$f8,$fc,$fe,$ff,$0f
   657 4658 0F 0F 0F 00 00 00 + 	.byte	$0f,$0f,$0f,$00,$00,$00,$00,$f0
   658 4660 F0 F0 F0 00 00 00 + 	.byte	$f0,$f0,$f0,$00,$00,$00,$00,$ff
   659 4668 FF 00 00 00 00 00 + 	.byte	$ff,$00,$00,$00,$00,$00,$00,$00
   660 4670 00 00 00 00 00 FF + 	.byte	$00,$00,$00,$00,$00,$ff,$ff,$00
   661 4678 00 00 00 F0 F0 F0 + 	.byte	$00,$00,$00,$f0,$f0,$f0,$f0,$00
   662 4680 00 1C 1C 77 77 08 + 	.byte	$00,$1c,$1c,$77,$77,$08,$1c,$00
   663 4688 00 00 03 07 0C 18 + 	.byte	$00,$00,$03,$07,$0c,$18,$18,$00
   664 4690 00 00 FF FF 00 00 + 	.byte	$00,$00,$ff,$ff,$00,$00,$00,$18
   665 4698 18 18 FF FF 18 18 + 	.byte	$18,$18,$ff,$ff,$18,$18,$18,$00
   666 46A0 00 3C 7E 7E 7E 3C + 	.byte	$00,$3c,$7e,$7e,$7e,$3c,$00,$00
   667 46A8 00 00 00 FF FF FF + 	.byte	$00,$00,$00,$ff,$ff,$ff,$ff,$c0
   668 46B0 C0 C0 C0 C0 C0 C0 + 	.byte	$c0,$c0,$c0,$c0,$c0,$c0,$c0,$00
   669 46B8 00 00 C3 E7 3C 18 + 	.byte	$00,$00,$c3,$e7,$3c,$18,$18,$18
   670 46C0 18 3C E7 C3 00 00 + 	.byte	$18,$3c,$e7,$c3,$00,$00,$00,$f0
   671 46C8 F0 F0 F0 F0 F0 F0 + 	.byte	$f0,$f0,$f0,$f0,$f0,$f0,$f0,$18
   672 46D0 18 0C 07 03 00 00 + 	.byte	$18,$0c,$07,$03,$00,$00,$00,$78
   673 46D8 60 78 60 7E 18 1E + 	.byte	$60,$78,$60,$7e,$18,$1e,$00,$00
   674 46E0 18 3C 7E 18 18 18 + 	.byte	$18,$3c,$7e,$18,$18,$18,$00,$00
   675 46E8 18 18 18 7E 3C 18 + 	.byte	$18,$18,$18,$7e,$3c,$18,$00,$00
   676 46F0 18 30 7E 30 18 00 + 	.byte	$18,$30,$7e,$30,$18,$00,$00,$00
   677 46F8 18 0C 7E 0C 18 00 + 	.byte	$18,$0c,$7e,$0c,$18,$00,$00,$18
   678 4700 3C 66 C3 18 3C 66 + 	.byte	$3c,$66,$c3,$18,$3c,$66,$c3,$00
   679 4708 40 3E 66 66 66 3B + 	.byte	$40,$3e,$66,$66,$66,$3b,$40,$30
   680 4710 60 62 7C 66 66 7C + 	.byte	$60,$62,$7c,$66,$66,$7c,$02,$00
   681 4718 40 3C 76 60 66 3C + 	.byte	$40,$3c,$76,$60,$66,$3c,$40,$0c
   682 4720 06 46 3E 66 66 3A + 	.byte	$06,$46,$3e,$66,$66,$3a,$40,$00
   683 4728 40 3C 66 7E 60 38 + 	.byte	$40,$3c,$66,$7e,$60,$38,$04,$2e
   684 4730 18 18 18 3E 18 18 + 	.byte	$18,$18,$18,$3e,$18,$18,$00,$00
   685 4738 86 7C CC CC 78 C2 + 	.byte	$86,$7c,$cc,$cc,$78,$c2,$7c,$c0
   686 4740 60 62 6C 76 66 66 + 	.byte	$60,$62,$6c,$76,$66,$66,$00,$30
   687 4748 00 18 0C 0C 0C 0E + 	.byte	$00,$18,$0c,$0c,$0c,$0e,$00,$0c
   688 4750 00 0C 0C 0C 0C 18 + 	.byte	$00,$0c,$0c,$0c,$0c,$18,$38,$00
   689 4758 C0 66 6C 78 6C E6 + 	.byte	$c0,$66,$6c,$78,$6c,$e6,$00,$30
   690 4760 18 18 18 18 18 0C + 	.byte	$18,$18,$18,$18,$18,$0c,$00,$00
   691 4768 C0 66 7E 7E 6A 63 + 	.byte	$c0,$66,$7e,$7e,$6a,$63,$00,$00
   692 4770 E2 7C 66 66 66 63 + 	.byte	$e2,$7c,$66,$66,$66,$63,$00,$00
   693 4778 40 3C 6E 66 76 3C + 	.byte	$40,$3c,$6e,$66,$76,$3c,$40,$00
   694 4780 C2 7C 66 66 7C 62 + 	.byte	$c2,$7c,$66,$66,$7c,$62,$e0,$00
   695 4788 40 3B 66 66 3E 46 + 	.byte	$40,$3b,$66,$66,$3e,$46,$07,$00
   696 4790 E0 7C 76 60 60 60 + 	.byte	$e0,$7c,$76,$60,$60,$60,$00,$00
   697 4798 40 3E 70 3C 8E 7C + 	.byte	$40,$3e,$70,$3c,$8e,$7c,$02,$30
   698 47A0 30 7E 30 30 30 36 + 	.byte	$30,$7e,$30,$30,$30,$36,$1c,$00
   699 47A8 01 E6 66 66 6E 3B + 	.byte	$01,$e6,$66,$66,$6e,$3b,$00,$00
   700 47B0 0D E6 66 66 3C 18 + 	.byte	$0d,$e6,$66,$66,$3c,$18,$00,$00
   701 47B8 00 E3 6B 7F 3E 36 + 	.byte	$00,$e3,$6b,$7f,$3e,$36,$00,$00
   702 47C0 C0 66 3C 18 3C 66 + 	.byte	$c0,$66,$3c,$18,$3c,$66,$03,$00
   703 47C8 00 E6 66 66 3E CC + 	.byte	$00,$e6,$66,$66,$3e,$cc,$78,$00
   704 47D0 00 7E 0C 7E 30 7E + 	.byte	$00,$7e,$0c,$7e,$30,$7e,$00,$00
   705 47D8 18 3C 7E 7E 18 3C + 	.byte	$18,$3c,$7e,$7e,$18,$3c,$00,$18
   706 47E0 18 18 18 18 18 18 + 	.byte	$18,$18,$18,$18,$18,$18,$18,$00
   707 47E8 7E 78 7C 6E 66 06 + 	.byte	$7e,$78,$7c,$6e,$66,$06,$00,$08
   708 47F0 18 38 78 38 18 08 + 	.byte	$18,$38,$78,$38,$18,$08,$00,$00
   709 47F8 00 00 FF 7E 3C 18 + 	.byte	$00,$00,$ff,$7e,$3c,$18,$00,$01
   710
   711 					
